; Function Attrs: mustprogress uwtable
define noundef ptr @_ZN6icu_7511PluralRules20createSharedInstanceERKNS_6LocaleE11UPluralTypeR10UErrorCode(ptr noundef nonnull align 8 dereferenceable(217) %locale, i32 noundef %type, ptr noundef nonnull align 4 dereferenceable(4) %status) local_unnamed_addr #1 align 2 {
entry:
  %result = alloca ptr, align 8
  %0 = load i32, ptr %status, align 4
  %cmp.i = icmp slt i32 %0, 1
  br i1 %cmp.i, label %if.end, label %return

if.end:                                           ; preds = %entry
  %cmp.not = icmp eq i32 %type, 0
  br i1 %cmp.not, label %if.end2, label %if.then1

if.then1:                                         ; preds = %if.end
  store i32 16, ptr %status, align 4
  br label %return

if.end2:                                          ; preds = %if.end
  store ptr null, ptr %result, align 8
  call void @_ZN6icu_7512UnifiedCache11getByLocaleINS_17SharedPluralRulesEEEvRKNS_6LocaleERPKT_R10UErrorCode(ptr noundef nonnull align 8 dereferenceable(217) %locale, ptr noundef nonnull align 8 dereferenceable(8) %result, ptr noundef nonnull align 4 dereferenceable(4) %status)
  %1 = load ptr, ptr %result, align 8
  br label %return

return:                                           ; preds = %entry, %if.end2, %if.then1
  %retval.0 = phi ptr [ null, %if.then1 ], [ %1, %if.end2 ], [ null, %entry ]
  ret ptr %retval.0
}